   1              		.cpu cortex-m0plus
   2              		.eabi_attribute 20, 1
   3              		.eabi_attribute 21, 1
   4              		.eabi_attribute 23, 3
   5              		.eabi_attribute 24, 1
   6              		.eabi_attribute 25, 1
   7              		.eabi_attribute 26, 1
   8              		.eabi_attribute 30, 4
   9              		.eabi_attribute 34, 0
  10              		.eabi_attribute 18, 4
  11              		.file	"psoc6_erase.c"
  12              		.text
  13              		.align	1
  14              		.global	write
  15              		.arch armv6s-m
  16              		.syntax unified
  17              		.code	16
  18              		.thumb_func
  19              		.fpu softvfp
  21              	write:
  22              		@ Volatile: function does not return.
  23              		@ args = 0, pretend = 0, frame = 16
  24              		@ frame_needed = 0, uses_anonymous_args = 0
  25 0000 F0B5     		push	{r4, r5, r6, r7, lr}
  26 0002 85B0     		sub	sp, sp, #20
  27 0004 0191     		str	r1, [sp, #4]
  28              		.syntax divided
  29              	@ 70 "psoc6_erase.c" 1
  30 0006 62B6     		cpsie i
  31              	@ 0 "" 2
  32              		.thumb
  33              		.syntax unified
  34 0008 F026     		movs	r6, #240
  35 000a 2A49     		ldr	r1, .L20
  36 000c 3601     		lsls	r6, r6, #4
  37 000e 0B68     		ldr	r3, [r1]
  38 0010 294D     		ldr	r5, .L20+4
  39 0012 3340     		ands	r3, r6
  40 0014 5E1E     		subs	r6, r3, #1
  41 0016 B341     		sbcs	r3, r3, r6
  42 0018 0126     		movs	r6, #1
  43 001a 1033     		adds	r3, r3, #16
  44 001c 9E40     		lsls	r6, r6, r3
  45 001e 2C68     		ldr	r4, [r5]
  46 0020 2642     		tst	r6, r4
  47 0022 01D1     		bne	.L2
  48 0024 3443     		orrs	r4, r6
  49 0026 2C60     		str	r4, [r5]
  50              	.L2:
  51 0028 A027     		movs	r7, #160
  52 002a 0324     		movs	r4, #3
  53 002c 0126     		movs	r6, #1
  54 002e 3F06     		lsls	r7, r7, #24
  55              	.L3:
  56 0030 002A     		cmp	r2, #0
  57 0032 01D1     		bne	.L4
  58              	.L13:
  59              		.syntax divided
  60              	@ 100 "psoc6_erase.c" 1
  61 0034 00BE     		bkpt 0
  62              	@ 0 "" 2
  63              		.thumb
  64              		.syntax unified
  65 0036 FDE7     		b	.L13
  66              	.L4:
  67 0038 4368     		ldr	r3, [r0, #4]
  68 003a 9C46     		mov	ip, r3
  69 003c 0368     		ldr	r3, [r0]
  70 003e 9C45     		cmp	ip, r3
  71 0040 FAD0     		beq	.L4
  72 0042 4368     		ldr	r3, [r0, #4]
  73 0044 1B68     		ldr	r3, [r3]
  74 0046 1D00     		movs	r5, r3
  75 0048 2540     		ands	r5, r4
  76 004a 012D     		cmp	r5, #1
  77 004c 2CD0     		beq	.L5
  78 004e 022D     		cmp	r5, #2
  79 0050 2CD0     		beq	.L6
  80 0052 002D     		cmp	r5, #0
  81 0054 2CD1     		bne	.L14
  82 0056 194D     		ldr	r5, .L20+8
  83              	.L19:
  84 0058 0295     		str	r5, [sp, #8]
  85 005a F025     		movs	r5, #240
  86 005c A343     		bics	r3, r4
  87 005e 0393     		str	r3, [sp, #12]
  88 0060 0B68     		ldr	r3, [r1]
  89 0062 2D01     		lsls	r5, r5, #4
  90 0064 2B40     		ands	r3, r5
  91 0066 5D1E     		subs	r5, r3, #1
  92 0068 AB41     		sbcs	r3, r3, r5
  93 006a 154D     		ldr	r5, .L20+12
  94 006c 5B19     		adds	r3, r3, r5
  95 006e 5B01     		lsls	r3, r3, #5
  96              	.L9:
  97 0070 1D68     		ldr	r5, [r3]
  98 0072 002D     		cmp	r5, #0
  99 0074 FCDA     		bge	.L9
 100 0076 02AD     		add	r5, sp, #8
 101 0078 DD60     		str	r5, [r3, #12]
 102 007a 9E60     		str	r6, [r3, #8]
 103              	.L10:
 104 007c DD69     		ldr	r5, [r3, #28]
 105 007e 002D     		cmp	r5, #0
 106 0080 FCDB     		blt	.L10
 107 0082 029B     		ldr	r3, [sp, #8]
 108              	.L7:
 109 0084 1D0F     		lsrs	r5, r3, #28
 110 0086 2D07     		lsls	r5, r5, #28
 111 0088 BD42     		cmp	r5, r7
 112 008a 03D0     		beq	.L11
 113 008c 0025     		movs	r5, #0
 114 008e 4560     		str	r5, [r0, #4]
 115              		.syntax divided
 116              	@ 86 "psoc6_erase.c" 1
 117 0090 181C     		mov r0, r3
 118 0092 00BE     		bkpt 0
 119              	@ 0 "" 2
 120              		.thumb
 121              		.syntax unified
 122              	.L11:
 123 0094 4368     		ldr	r3, [r0, #4]
 124 0096 019D     		ldr	r5, [sp, #4]
 125 0098 0433     		adds	r3, r3, #4
 126 009a AB42     		cmp	r3, r5
 127 009c 01D3     		bcc	.L12
 128 009e 0300     		movs	r3, r0
 129 00a0 0833     		adds	r3, r3, #8
 130              	.L12:
 131 00a2 4360     		str	r3, [r0, #4]
 132 00a4 013A     		subs	r2, r2, #1
 133 00a6 C3E7     		b	.L3
 134              	.L5:
 135 00a8 064D     		ldr	r5, .L20+16
 136 00aa D5E7     		b	.L19
 137              	.L6:
 138 00ac 064D     		ldr	r5, .L20+20
 139 00ae D3E7     		b	.L19
 140              	.L14:
 141 00b0 064B     		ldr	r3, .L20+24
 142 00b2 E7E7     		b	.L7
 143              	.L21:
 144              		.align	2
 145              	.L20:
 146 00b4 00002040 		.word	1075838976
 147 00b8 08102240 		.word	1075974152
 148 00bc 0001001C 		.word	469762304
 149 00c0 00100102 		.word	33624064
 150 00c4 00010014 		.word	335544576
 151 00c8 0001001D 		.word	486539520
 152 00cc ADBA0DF0 		.word	-267535699
 154              		.ident	"GCC: (bleeding-edge-toolchain) 11.2.0"
